; ModuleID = '34/2700.c'
source_filename = "34/2700.c"
target datalayout = "e-m:e-p270:32:32-p271:32:32-p272:64:64-i64:64-f80:128-n8:16:32:64-S128"
target triple = "x86_64-pc-linux-gnu"

@.str = private unnamed_addr constant [3 x i8] c"%d\00", align 1
@.str.1 = private unnamed_addr constant [5 x i8] c"End\0A\00", align 1
@.str.2 = private unnamed_addr constant [9 x i8] c"%d/2=%d\0A\00", align 1
@.str.3 = private unnamed_addr constant [11 x i8] c"%d*3+1=%d\0A\00", align 1

; Function Attrs: noinline nounwind uwtable
define dso_local void @main() #0 {
  %1 = alloca i32, align 4
  %2 = alloca i32, align 4
  %3 = call i32 (i8*, ...) @__isoc99_scanf(i8* getelementptr inbounds ([3 x i8], [3 x i8]* @.str, i64 0, i64 0), i32* %1)
  %4 = load i32, i32* %1, align 4
  %5 = icmp eq i32 %4, 1
  br i1 %5, label %6, label %8

6:                                                ; preds = %0
  %7 = call i32 (i8*, ...) @printf(i8* getelementptr inbounds ([5 x i8], [5 x i8]* @.str.1, i64 0, i64 0))
  br label %23

8:                                                ; preds = %0
  %9 = load i32, i32* %1, align 4
  %10 = call i32 @jisuan(i32 %9)
  store i32 %10, i32* %2, align 4
  br label %11

11:                                               ; preds = %14, %8
  %12 = load i32, i32* %2, align 4
  %13 = icmp ne i32 %12, 1
  br i1 %13, label %14, label %17

14:                                               ; preds = %11
  %15 = load i32, i32* %2, align 4
  %16 = call i32 @jisuan(i32 %15)
  store i32 %16, i32* %2, align 4
  br label %11

17:                                               ; preds = %11
  %18 = load i32, i32* %2, align 4
  %19 = icmp eq i32 %18, 1
  br i1 %19, label %20, label %22

20:                                               ; preds = %17
  %21 = call i32 (i8*, ...) @printf(i8* getelementptr inbounds ([5 x i8], [5 x i8]* @.str.1, i64 0, i64 0))
  br label %22

22:                                               ; preds = %20, %17
  br label %23

23:                                               ; preds = %22, %6
  ret void
}

declare dso_local i32 @__isoc99_scanf(i8*, ...) #1

declare dso_local i32 @printf(i8*, ...) #1

; Function Attrs: noinline nounwind uwtable
define dso_local i32 @jisuan(i32 %0) #0 {
  %2 = alloca i32, align 4
  %3 = alloca i32, align 4
  store i32 %0, i32* %2, align 4
  %4 = load i32, i32* %2, align 4
  %5 = srem i32 %4, 2
  %6 = icmp eq i32 %5, 0
  br i1 %6, label %7, label %13

7:                                                ; preds = %1
  %8 = load i32, i32* %2, align 4
  %9 = sdiv i32 %8, 2
  store i32 %9, i32* %3, align 4
  %10 = load i32, i32* %2, align 4
  %11 = load i32, i32* %3, align 4
  %12 = call i32 (i8*, ...) @printf(i8* getelementptr inbounds ([9 x i8], [9 x i8]* @.str.2, i64 0, i64 0), i32 %10, i32 %11)
  br label %20

13:                                               ; preds = %1
  %14 = load i32, i32* %2, align 4
  %15 = mul nsw i32 %14, 3
  %16 = add nsw i32 %15, 1
  store i32 %16, i32* %3, align 4
  %17 = load i32, i32* %2, align 4
  %18 = load i32, i32* %3, align 4
  %19 = call i32 (i8*, ...) @printf(i8* getelementptr inbounds ([11 x i8], [11 x i8]* @.str.3, i64 0, i64 0), i32 %17, i32 %18)
  br label %20

20:                                               ; preds = %13, %7
  %21 = load i32, i32* %3, align 4
  ret i32 %21
}


!llvm.module.flags = !{!0}
!llvm.ident = !{!1}

!0 = !{i32 1, !"wchar_size", i32 4}
!1 = !{!"clang version 10.0.0-4ubuntu1 "}
